target datalayout = "e-m:e-p270:32:32-p271:32:32-p272:64:64-i64:64-i128:128-f80:128-n8:16:32:64-S128"
target triple = "x86_64-pc-linux-gnu"

; Function Attrs: alwaysinline nounwind
define internal ptr @memcpy.inline(ptr noalias %0, ptr noalias %1, i64 %2) #3 {
  %4 = alloca ptr, align 8
  %5 = alloca ptr, align 8
  %6 = alloca i64, align 8
  store ptr %0, ptr %4, align 8
  store ptr %1, ptr %5, align 8
  store i64 %2, ptr %6, align 8
  %7 = load ptr, ptr %4, align 8
  %8 = load ptr, ptr %5, align 8
  %9 = load i64, ptr %6, align 8
  %10 = load ptr, ptr %4, align 8
  %11 = call i64 @llvm.objectsize.i64.p0(ptr %10, i1 false, i1 true, i1 true)
  %12 = call ptr @__memcpy_chk(ptr noundef %7, ptr noundef %8, i64 noundef %9, i64 noundef %11) #17
  ret ptr %12
}

; Function Attrs: alwaysinline nounwind
define internal ptr @memset.inline(ptr %0, i32 %1, i64 %2) #3 {
  %4 = alloca ptr, align 8
  %5 = alloca i32, align 4
  %6 = alloca i64, align 8
  store ptr %0, ptr %4, align 8
  store i32 %1, ptr %5, align 4
  store i64 %2, ptr %6, align 8
  %7 = load ptr, ptr %4, align 8
  %8 = load i32, ptr %5, align 4
  %9 = load i64, ptr %6, align 8
  %10 = load ptr, ptr %4, align 8
  %11 = call i64 @llvm.objectsize.i64.p0(ptr %10, i1 false, i1 true, i1 true)
  %12 = call ptr @__memset_chk(ptr noundef %7, i32 noundef %8, i64 noundef %9, i64 noundef %11) #17
  ret ptr %12
}

; Function Attrs: null_pointer_is_valid sspstrong uwtable
define internal void @get_keyexchange_key(ptr noundef %0, ptr noundef %1, ptr noundef %2, i32 noundef %3) #0 {
  %5 = alloca ptr, align 8
  %6 = alloca ptr, align 8
  %7 = alloca ptr, align 8
  %8 = alloca i32, align 4
  %9 = alloca [16 x i8], align 16
  %10 = alloca [24 x i8], align 16
  store ptr %0, ptr %5, align 8
  store ptr %1, ptr %6, align 8
  store ptr %2, ptr %7, align 8
  store i32 %3, ptr %8, align 4
  call void @llvm.lifetime.start.p0(i64 16, ptr %9) #17
  call void @llvm.lifetime.start.p0(i64 24, ptr %10) #17
  call void @llvm.memset.p0.i64(ptr align 16 %10, i8 0, i64 24, i1 false)
  %11 = load ptr, ptr %5, align 8
  %12 = call ptr @memset.inline(ptr noundef %11, i32 noundef 0, i64 noundef 16) #17
  %13 = getelementptr inbounds [16 x i8], ptr %9, i64 0, i64 0
  %14 = call ptr @memset.inline(ptr noundef %13, i32 noundef 0, i64 noundef 16) #17
  %15 = getelementptr inbounds [16 x i8], ptr %9, i64 0, i64 0
  %16 = load ptr, ptr %6, align 8
  %17 = call ptr @memcpy.inline(ptr noundef %15, ptr noundef %16, i64 noundef 8) #17
  %18 = getelementptr inbounds [16 x i8], ptr %9, i64 0, i64 0
  %19 = getelementptr i8, ptr %18, i64 8
  %20 = call ptr @memset.inline(ptr noundef %19, i32 noundef 189, i64 noundef 8) #17
  %21 = load i32, ptr %8, align 4
  %22 = and i32 %21, 128
  %23 = icmp ne i32 %22, 0
  br i1 %23, label %24, label %33

24:                                               ; preds = %4
  %25 = load ptr, ptr %5, align 8
  %26 = load ptr, ptr %7, align 8
  %27 = getelementptr inbounds [16 x i8], ptr %9, i64 0, i64 0
  call void @crypt_des_ecb(ptr noundef %25, ptr noundef %26, ptr noundef %27)
  %28 = load ptr, ptr %5, align 8
  %29 = getelementptr i8, ptr %28, i64 8
  %30 = load ptr, ptr %7, align 8
  %31 = getelementptr inbounds [16 x i8], ptr %9, i64 0, i64 0
  %32 = getelementptr i8, ptr %31, i64 7
  call void @crypt_des_ecb(ptr noundef %29, ptr noundef %30, ptr noundef %32)
  br label %51

33:                                               ; preds = %4
  %34 = load i32, ptr %8, align 4
  %35 = and i32 %34, 4194304
  %36 = icmp ne i32 %35, 0
  br i1 %36, label %37, label %46

37:                                               ; preds = %33
  %38 = load ptr, ptr %5, align 8
  %39 = getelementptr inbounds [24 x i8], ptr %10, i64 0, i64 0
  %40 = getelementptr inbounds [16 x i8], ptr %9, i64 0, i64 0
  call void @crypt_des_ecb(ptr noundef %38, ptr noundef %39, ptr noundef %40)
  %41 = load ptr, ptr %5, align 8
  %42 = getelementptr i8, ptr %41, i64 8
  %43 = getelementptr inbounds [24 x i8], ptr %10, i64 0, i64 0
  %44 = getelementptr inbounds [16 x i8], ptr %9, i64 0, i64 0
  %45 = getelementptr i8, ptr %44, i64 7
  call void @crypt_des_ecb(ptr noundef %42, ptr noundef %43, ptr noundef %45)
  br label %50

46:                                               ; preds = %33
  %47 = load ptr, ptr %5, align 8
  %48 = load ptr, ptr %6, align 8
  %49 = call ptr @memcpy.inline(ptr noundef %47, ptr noundef %48, i64 noundef 16) #17
  br label %50

50:                                               ; preds = %46, %37
  br label %51

51:                                               ; preds = %50, %24
  call void @llvm.lifetime.end.p0(i64 24, ptr %10) #17
  call void @llvm.lifetime.end.p0(i64 16, ptr %9) #17
  ret void
}