; Function Attrs: null_pointer_is_valid sspstrong uwtable
define internal fastcc void @get_keyexchange_key(ptr noundef %0, ptr noundef readonly captures(none) %1, ptr noundef %2, i32 noundef %3) unnamed_addr #0 {
  %5 = alloca [16 x i8], align 16
  %6 = alloca [24 x i8], align 16
  call void @llvm.lifetime.start.p0(i64 16, ptr nonnull %5) #17
  call void @llvm.lifetime.start.p0(i64 24, ptr nonnull %6) #17
  call void @llvm.memset.p0.i64(ptr noundef nonnull align 16 dereferenceable(24) %6, i8 0, i64 24, i1 false)
  tail call void @llvm.memset.p0.i64(ptr noundef align 1 dereferenceable(16) %0, i8 noundef 0, i64 noundef 16, i1 noundef false) #17
  %7 = load i64, ptr %1, align 1
  store i64 %7, ptr %5, align 16
  %8 = getelementptr inbounds nuw i8, ptr %5, i64 8
  store i64 -4774451407313060419, ptr %8, align 8
  %9 = and i32 %3, 128
  %.not = icmp eq i32 %9, 0
  br i1 %.not, label %13, label %10

10:                                               ; preds = %4
  call void @crypt_des_ecb(ptr noundef %0, ptr noundef %2, ptr noundef nonnull %5)
  %11 = getelementptr i8, ptr %0, i64 8
  %12 = getelementptr inbounds nuw i8, ptr %5, i64 7
  call void @crypt_des_ecb(ptr noundef %11, ptr noundef %2, ptr noundef nonnull %12)
  br label %19

13:                                               ; preds = %4
  %14 = and i32 %3, 4194304
  %.not11 = icmp eq i32 %14, 0
  br i1 %.not11, label %18, label %15

15:                                               ; preds = %13
  call void @crypt_des_ecb(ptr noundef %0, ptr noundef nonnull %6, ptr noundef nonnull %5)
  %16 = getelementptr i8, ptr %0, i64 8
  %17 = getelementptr inbounds nuw i8, ptr %5, i64 7
  call void @crypt_des_ecb(ptr noundef %16, ptr noundef nonnull %6, ptr noundef nonnull %17)
  br label %19

18:                                               ; preds = %13
  tail call void @llvm.memcpy.p0.p0.i64(ptr noundef align 1 dereferenceable(16) %0, ptr noundef align 1 dereferenceable(16) %1, i64 noundef 16, i1 noundef false) #17
  br label %19

19:                                               ; preds = %15, %18, %10
  call void @llvm.lifetime.end.p0(i64 24, ptr nonnull %6) #17
  call void @llvm.lifetime.end.p0(i64 16, ptr nonnull %5) #17
  ret void
}